; Function Attrs: mustprogress uwtable
define i32 @cvGetElemType(ptr noundef readonly %0) local_unnamed_addr #0 personality ptr @__gxx_personality_v0 {
  %2 = alloca %"class.std::__cxx11::basic_string", align 8
  %3 = alloca %"class.std::allocator", align 1
  %.not = icmp eq ptr %0, null
  br i1 %.not, label %.critedge25, label %4

4:                                                ; preds = %1
  %5 = load i32, ptr %0, align 8, !tbaa !22
  %6 = and i32 %5, -65536
  switch i32 %6, label %.critedge24 [
    i32 1111621632, label %7
    i32 1111687168, label %15
    i32 1111752704, label %15
  ]

7:                                                ; preds = %4
  %8 = getelementptr inbounds nuw i8, ptr %0, i64 36
  %9 = load i32, ptr %8, align 4, !tbaa !23
  %10 = icmp sgt i32 %9, 0
  br i1 %10, label %11, label %.critedge25

11:                                               ; preds = %7
  %12 = getelementptr inbounds nuw i8, ptr %0, i64 32
  %13 = load i32, ptr %12, align 8, !tbaa !23
  %14 = icmp sgt i32 %13, 0
  br i1 %14, label %15, label %.critedge25

15:                                               ; preds = %4, %4, %11
  %16 = and i32 %5, 4095
  br label %44

.critedge24:                                      ; preds = %4
  %17 = icmp eq i32 %5, 144
  br i1 %17, label %18, label %.critedge25

18:                                               ; preds = %.critedge24
  %19 = getelementptr inbounds nuw i8, ptr %0, i64 88
  %20 = load ptr, ptr %19, align 8, !tbaa !27
  %.not21 = icmp eq ptr %20, null
  br i1 %.not21, label %.critedge25, label %21

21:                                               ; preds = %18
  %22 = getelementptr inbounds nuw i8, ptr %0, i64 16
  %23 = load i32, ptr %22, align 8, !tbaa !36
  %24 = lshr i32 %23, 2
  %25 = and i32 %24, 60
  %.not23.inv = icmp slt i32 %23, 0
  %26 = select i1 %.not23.inv, i32 20, i32 0
  %27 = add nuw nsw i32 %25, %26
  %28 = lshr i32 1125516576, %27
  %29 = and i32 %28, 7
  %30 = getelementptr inbounds nuw i8, ptr %0, i64 8
  %31 = load i32, ptr %30, align 8, !tbaa !107
  %32 = shl i32 %31, 3
  %33 = add i32 %32, -8
  %34 = or disjoint i32 %29, %33
  br label %44

.critedge25:                                      ; preds = %11, %7, %1, %18, %.critedge24
  call void @llvm.lifetime.start.p0(i64 32, ptr nonnull %2) #12
  call void @llvm.lifetime.start.p0(i64 1, ptr nonnull %3) #12
  call void @_ZNSt7__cxx1112basic_stringIcSt11char_traitsIcESaIcEEC2EPKcRKS3_(ptr noundef nonnull align 8 dereferenceable(32) %2, ptr noundef nonnull @.str.34, ptr noundef nonnull align 1 dereferenceable(1) %3)
  invoke void @_ZN2cv5errorEiRKNSt7__cxx1112basic_stringIcSt11char_traitsIcESaIcEEEPKcS9_i(i32 noundef -5, ptr noundef nonnull align 8 dereferenceable(32) %2, ptr noundef nonnull @__func__.cvGetElemType, ptr noundef nonnull @.str.1, i32 noundef 1096) #13
          to label %35 unwind label %36

35:                                               ; preds = %.critedge25
  unreachable

36:                                               ; preds = %.critedge25
  %37 = landingpad { ptr, i32 }
          cleanup
  %38 = load ptr, ptr %2, align 8, !tbaa !3
  %39 = getelementptr inbounds nuw i8, ptr %2, i64 16
  %40 = icmp eq ptr %38, %39
  br i1 %40, label %_ZNKSt7__cxx1112basic_stringIcSt11char_traitsIcESaIcEE11_M_is_localEv.exit.thread.i.i, label %_ZNKSt7__cxx1112basic_stringIcSt11char_traitsIcESaIcEE11_M_is_localEv.exit.i.i

_ZNKSt7__cxx1112basic_stringIcSt11char_traitsIcESaIcEE11_M_is_localEv.exit.thread.i.i: ; preds = %36
  %41 = getelementptr inbounds nuw i8, ptr %2, i64 8
  %42 = load i64, ptr %41, align 8, !tbaa !11
  %43 = icmp ult i64 %42, 16
  call void @llvm.assume(i1 %43)
  br label %_ZNSt7__cxx1112basic_stringIcSt11char_traitsIcESaIcEED2Ev.exit

_ZNKSt7__cxx1112basic_stringIcSt11char_traitsIcESaIcEE11_M_is_localEv.exit.i.i: ; preds = %36
  call void @_ZdlPv(ptr noundef %38) #14
  br label %_ZNSt7__cxx1112basic_stringIcSt11char_traitsIcESaIcEED2Ev.exit

_ZNSt7__cxx1112basic_stringIcSt11char_traitsIcESaIcEED2Ev.exit: ; preds = %_ZNKSt7__cxx1112basic_stringIcSt11char_traitsIcESaIcEE11_M_is_localEv.exit.i.i, %_ZNKSt7__cxx1112basic_stringIcSt11char_traitsIcESaIcEE11_M_is_localEv.exit.thread.i.i
  call void @llvm.lifetime.end.p0(i64 1, ptr nonnull %3) #12
  call void @llvm.lifetime.end.p0(i64 32, ptr nonnull %2) #12
  resume { ptr, i32 } %37

44:                                               ; preds = %21, %15
  %.019 = phi i32 [ %16, %15 ], [ %34, %21 ]
  ret i32 %.019
}